; ModuleID = '55/1484.c'
source_filename = "55/1484.c"
target datalayout = "e-m:e-p270:32:32-p271:32:32-p272:64:64-i64:64-f80:128-n8:16:32:64-S128"
target triple = "x86_64-pc-linux-gnu"

@.str = private unnamed_addr constant [7 x i8] c"%d%s%d\00", align 1
@.str.1 = private unnamed_addr constant [3 x i8] c"%c\00", align 1

; Function Attrs: noinline nounwind uwtable
define dso_local i32 @main() #0 {
  %1 = alloca i32, align 4
  %2 = alloca i32, align 4
  %3 = alloca i32, align 4
  %4 = alloca i32, align 4
  %5 = alloca i32, align 4
  %6 = alloca [100 x i32], align 16
  %7 = alloca i64, align 8
  %8 = alloca [100 x i8], align 16
  store i32 0, i32* %1, align 4
  store i32 0, i32* %5, align 4
  store i64 0, i64* %7, align 8
  %9 = getelementptr inbounds [100 x i8], [100 x i8]* %8, i64 0, i64 0
  %10 = call i32 (i8*, ...) @__isoc99_scanf(i8* getelementptr inbounds ([7 x i8], [7 x i8]* @.str, i64 0, i64 0), i32* %2, i8* %9, i32* %3)
  store i32 0, i32* %4, align 4
  br label %11

11:                                               ; preds = %92, %0
  %12 = load i32, i32* %4, align 4
  %13 = sext i32 %12 to i64
  %14 = getelementptr inbounds [100 x i8], [100 x i8]* %8, i64 0, i64 0
  %15 = call i64 @strlen(i8* %14) #4
  %16 = icmp ult i64 %13, %15
  br i1 %16, label %17, label %95

17:                                               ; preds = %11
  %18 = load i32, i32* %4, align 4
  %19 = sext i32 %18 to i64
  %20 = getelementptr inbounds [100 x i8], [100 x i8]* %8, i64 0, i64 %19
  %21 = load i8, i8* %20, align 1
  %22 = sext i8 %21 to i32
  %23 = icmp sge i32 %22, 48
  br i1 %23, label %24, label %41

24:                                               ; preds = %17
  %25 = load i32, i32* %4, align 4
  %26 = sext i32 %25 to i64
  %27 = getelementptr inbounds [100 x i8], [100 x i8]* %8, i64 0, i64 %26
  %28 = load i8, i8* %27, align 1
  %29 = sext i8 %28 to i32
  %30 = icmp sle i32 %29, 57
  br i1 %30, label %31, label %41

31:                                               ; preds = %24
  %32 = load i32, i32* %4, align 4
  %33 = sext i32 %32 to i64
  %34 = getelementptr inbounds [100 x i8], [100 x i8]* %8, i64 0, i64 %33
  %35 = load i8, i8* %34, align 1
  %36 = sext i8 %35 to i32
  %37 = sub nsw i32 %36, 48
  %38 = load i32, i32* %4, align 4
  %39 = sext i32 %38 to i64
  %40 = getelementptr inbounds [100 x i32], [100 x i32]* %6, i64 0, i64 %39
  store i32 %37, i32* %40, align 4
  br label %41

41:                                               ; preds = %31, %24, %17
  %42 = load i32, i32* %4, align 4
  %43 = sext i32 %42 to i64
  %44 = getelementptr inbounds [100 x i8], [100 x i8]* %8, i64 0, i64 %43
  %45 = load i8, i8* %44, align 1
  %46 = sext i8 %45 to i32
  %47 = icmp sge i32 %46, 97
  br i1 %47, label %48, label %66

48:                                               ; preds = %41
  %49 = load i32, i32* %4, align 4
  %50 = sext i32 %49 to i64
  %51 = getelementptr inbounds [100 x i8], [100 x i8]* %8, i64 0, i64 %50
  %52 = load i8, i8* %51, align 1
  %53 = sext i8 %52 to i32
  %54 = icmp sle i32 %53, 122
  br i1 %54, label %55, label %66

55:                                               ; preds = %48
  %56 = load i32, i32* %4, align 4
  %57 = sext i32 %56 to i64
  %58 = getelementptr inbounds [100 x i8], [100 x i8]* %8, i64 0, i64 %57
  %59 = load i8, i8* %58, align 1
  %60 = sext i8 %59 to i32
  %61 = sub nsw i32 %60, 97
  %62 = add nsw i32 %61, 10
  %63 = load i32, i32* %4, align 4
  %64 = sext i32 %63 to i64
  %65 = getelementptr inbounds [100 x i32], [100 x i32]* %6, i64 0, i64 %64
  store i32 %62, i32* %65, align 4
  br label %66

66:                                               ; preds = %55, %48, %41
  %67 = load i32, i32* %4, align 4
  %68 = sext i32 %67 to i64
  %69 = getelementptr inbounds [100 x i8], [100 x i8]* %8, i64 0, i64 %68
  %70 = load i8, i8* %69, align 1
  %71 = sext i8 %70 to i32
  %72 = icmp sge i32 %71, 65
  br i1 %72, label %73, label %91

73:                                               ; preds = %66
  %74 = load i32, i32* %4, align 4
  %75 = sext i32 %74 to i64
  %76 = getelementptr inbounds [100 x i8], [100 x i8]* %8, i64 0, i64 %75
  %77 = load i8, i8* %76, align 1
  %78 = sext i8 %77 to i32
  %79 = icmp sle i32 %78, 90
  br i1 %79, label %80, label %91

80:                                               ; preds = %73
  %81 = load i32, i32* %4, align 4
  %82 = sext i32 %81 to i64
  %83 = getelementptr inbounds [100 x i8], [100 x i8]* %8, i64 0, i64 %82
  %84 = load i8, i8* %83, align 1
  %85 = sext i8 %84 to i32
  %86 = sub nsw i32 %85, 65
  %87 = add nsw i32 %86, 10
  %88 = load i32, i32* %4, align 4
  %89 = sext i32 %88 to i64
  %90 = getelementptr inbounds [100 x i32], [100 x i32]* %6, i64 0, i64 %89
  store i32 %87, i32* %90, align 4
  br label %91

91:                                               ; preds = %80, %73, %66
  br label %92

92:                                               ; preds = %91
  %93 = load i32, i32* %4, align 4
  %94 = add nsw i32 %93, 1
  store i32 %94, i32* %4, align 4
  br label %11

95:                                               ; preds = %11
  store i32 0, i32* %4, align 4
  br label %96

96:                                               ; preds = %123, %95
  %97 = load i32, i32* %4, align 4
  %98 = sext i32 %97 to i64
  %99 = getelementptr inbounds [100 x i8], [100 x i8]* %8, i64 0, i64 0
  %100 = call i64 @strlen(i8* %99) #4
  %101 = icmp ult i64 %98, %100
  br i1 %101, label %102, label %126

102:                                              ; preds = %96
  %103 = load i32, i32* %4, align 4
  %104 = sext i32 %103 to i64
  %105 = getelementptr inbounds [100 x i32], [100 x i32]* %6, i64 0, i64 %104
  %106 = load i32, i32* %105, align 4
  %107 = sitofp i32 %106 to double
  %108 = load i32, i32* %2, align 4
  %109 = sitofp i32 %108 to double
  %110 = getelementptr inbounds [100 x i8], [100 x i8]* %8, i64 0, i64 0
  %111 = call i64 @strlen(i8* %110) #4
  %112 = sub i64 %111, 1
  %113 = load i32, i32* %4, align 4
  %114 = sext i32 %113 to i64
  %115 = sub i64 %112, %114
  %116 = uitofp i64 %115 to double
  %117 = call double @pow(double %109, double %116) #5
  %118 = fmul double %107, %117
  %119 = load i64, i64* %7, align 8
  %120 = sitofp i64 %119 to double
  %121 = fadd double %120, %118
  %122 = fptosi double %121 to i64
  store i64 %122, i64* %7, align 8
  br label %123

123:                                              ; preds = %102
  %124 = load i32, i32* %4, align 4
  %125 = add nsw i32 %124, 1
  store i32 %125, i32* %4, align 4
  br label %96

126:                                              ; preds = %96
  br label %127

127:                                              ; preds = %132, %126
  %128 = load i64, i64* %7, align 8
  %129 = load i32, i32* %3, align 4
  %130 = sext i32 %129 to i64
  %131 = icmp sge i64 %128, %130
  br i1 %131, label %132, label %147

132:                                              ; preds = %127
  %133 = load i64, i64* %7, align 8
  %134 = load i32, i32* %3, align 4
  %135 = sext i32 %134 to i64
  %136 = srem i64 %133, %135
  %137 = trunc i64 %136 to i32
  %138 = load i32, i32* %5, align 4
  %139 = sext i32 %138 to i64
  %140 = getelementptr inbounds [100 x i32], [100 x i32]* %6, i64 0, i64 %139
  store i32 %137, i32* %140, align 4
  %141 = load i64, i64* %7, align 8
  %142 = load i32, i32* %3, align 4
  %143 = sext i32 %142 to i64
  %144 = sdiv i64 %141, %143
  store i64 %144, i64* %7, align 8
  %145 = load i32, i32* %5, align 4
  %146 = add nsw i32 %145, 1
  store i32 %146, i32* %5, align 4
  br label %127

147:                                              ; preds = %127
  %148 = load i64, i64* %7, align 8
  %149 = load i32, i32* %3, align 4
  %150 = sext i32 %149 to i64
  %151 = srem i64 %148, %150
  %152 = trunc i64 %151 to i32
  %153 = load i32, i32* %5, align 4
  %154 = sext i32 %153 to i64
  %155 = getelementptr inbounds [100 x i32], [100 x i32]* %6, i64 0, i64 %154
  store i32 %152, i32* %155, align 4
  store i32 0, i32* %4, align 4
  br label %156

156:                                              ; preds = %201, %147
  %157 = load i32, i32* %4, align 4
  %158 = load i32, i32* %5, align 4
  %159 = add nsw i32 %158, 1
  %160 = icmp slt i32 %157, %159
  br i1 %160, label %161, label %204

161:                                              ; preds = %156
  %162 = load i32, i32* %4, align 4
  %163 = sext i32 %162 to i64
  %164 = getelementptr inbounds [100 x i32], [100 x i32]* %6, i64 0, i64 %163
  %165 = load i32, i32* %164, align 4
  %166 = icmp sge i32 %165, 0
  br i1 %166, label %167, label %183

167:                                              ; preds = %161
  %168 = load i32, i32* %4, align 4
  %169 = sext i32 %168 to i64
  %170 = getelementptr inbounds [100 x i32], [100 x i32]* %6, i64 0, i64 %169
  %171 = load i32, i32* %170, align 4
  %172 = icmp sle i32 %171, 9
  br i1 %172, label %173, label %183

173:                                              ; preds = %167
  %174 = load i32, i32* %4, align 4
  %175 = sext i32 %174 to i64
  %176 = getelementptr inbounds [100 x i32], [100 x i32]* %6, i64 0, i64 %175
  %177 = load i32, i32* %176, align 4
  %178 = add nsw i32 %177, 48
  %179 = trunc i32 %178 to i8
  %180 = load i32, i32* %4, align 4
  %181 = sext i32 %180 to i64
  %182 = getelementptr inbounds [100 x i8], [100 x i8]* %8, i64 0, i64 %181
  store i8 %179, i8* %182, align 1
  br label %183

183:                                              ; preds = %173, %167, %161
  %184 = load i32, i32* %4, align 4
  %185 = sext i32 %184 to i64
  %186 = getelementptr inbounds [100 x i32], [100 x i32]* %6, i64 0, i64 %185
  %187 = load i32, i32* %186, align 4
  %188 = icmp sgt i32 %187, 9
  br i1 %188, label %189, label %200

189:                                              ; preds = %183
  %190 = load i32, i32* %4, align 4
  %191 = sext i32 %190 to i64
  %192 = getelementptr inbounds [100 x i32], [100 x i32]* %6, i64 0, i64 %191
  %193 = load i32, i32* %192, align 4
  %194 = add nsw i32 %193, 65
  %195 = sub nsw i32 %194, 10
  %196 = trunc i32 %195 to i8
  %197 = load i32, i32* %4, align 4
  %198 = sext i32 %197 to i64
  %199 = getelementptr inbounds [100 x i8], [100 x i8]* %8, i64 0, i64 %198
  store i8 %196, i8* %199, align 1
  br label %200

200:                                              ; preds = %189, %183
  br label %201

201:                                              ; preds = %200
  %202 = load i32, i32* %4, align 4
  %203 = add nsw i32 %202, 1
  store i32 %203, i32* %4, align 4
  br label %156

204:                                              ; preds = %156
  %205 = load i32, i32* %5, align 4
  store i32 %205, i32* %4, align 4
  br label %206

206:                                              ; preds = %216, %204
  %207 = load i32, i32* %4, align 4
  %208 = icmp sge i32 %207, 0
  br i1 %208, label %209, label %219

209:                                              ; preds = %206
  %210 = load i32, i32* %4, align 4
  %211 = sext i32 %210 to i64
  %212 = getelementptr inbounds [100 x i8], [100 x i8]* %8, i64 0, i64 %211
  %213 = load i8, i8* %212, align 1
  %214 = sext i8 %213 to i32
  %215 = call i32 (i8*, ...) @printf(i8* getelementptr inbounds ([3 x i8], [3 x i8]* @.str.1, i64 0, i64 0), i32 %214)
  br label %216

216:                                              ; preds = %209
  %217 = load i32, i32* %4, align 4
  %218 = add nsw i32 %217, -1
  store i32 %218, i32* %4, align 4
  br label %206

219:                                              ; preds = %206
  ret i32 0
}

declare dso_local i32 @__isoc99_scanf(i8*, ...) #1

; Function Attrs: nounwind readonly
declare dso_local i64 @strlen(i8*) #2

; Function Attrs: nounwind
declare dso_local double @pow(double, double) #3

declare dso_local i32 @printf(i8*, ...) #1


!llvm.module.flags = !{!0}
!llvm.ident = !{!1}

!0 = !{i32 1, !"wchar_size", i32 4}
!1 = !{!"clang version 10.0.0-4ubuntu1 "}
